; Function Attrs: mustprogress nofree norecurse nosync nounwind willreturn memory(read, inaccessiblemem: none) uwtable
define noundef i32 @_ZNK7testing8TestCase19disabled_test_countEv(ptr nocapture noundef nonnull readonly align 8 dereferenceable(248) %this) local_unnamed_addr #13 align 2 {
entry:
  %test_info_list_ = getelementptr inbounds i8, ptr %this, i64 48
  %0 = load ptr, ptr %test_info_list_, align 8
  %_M_finish.i.i = getelementptr inbounds i8, ptr %this, i64 56
  %1 = load ptr, ptr %_M_finish.i.i, align 8
  %cmp.i.not5.i = icmp eq ptr %0, %1
  br i1 %cmp.i.not5.i, label %_ZN7testing8internal7CountIfISt6vectorIPNS_8TestInfoESaIS4_EEPFbPKS3_EEEiRKT_T0_.exit, label %for.body.i

for.body.i:                                       ; preds = %entry, %for.body.i
  %count.07.i = phi i32 [ %spec.select.i, %for.body.i ], [ 0, %entry ]
  %it.sroa.0.06.i = phi ptr [ %incdec.ptr.i.i, %for.body.i ], [ %0, %entry ]
  %2 = load ptr, ptr %it.sroa.0.06.i, align 8
  %is_disabled_.i = getelementptr inbounds i8, ptr %2, i64 129
  %3 = load i8, ptr %is_disabled_.i, align 1
  %4 = and i8 %3, 1
  %inc.i = zext nneg i8 %4 to i32
  %spec.select.i = add nuw nsw i32 %count.07.i, %inc.i
  %incdec.ptr.i.i = getelementptr inbounds i8, ptr %it.sroa.0.06.i, i64 8
  %cmp.i.not.i = icmp eq ptr %incdec.ptr.i.i, %1
  br i1 %cmp.i.not.i, label %_ZN7testing8internal7CountIfISt6vectorIPNS_8TestInfoESaIS4_EEPFbPKS3_EEEiRKT_T0_.exit, label %for.body.i, !llvm.loop !39

_ZN7testing8internal7CountIfISt6vectorIPNS_8TestInfoESaIS4_EEPFbPKS3_EEEiRKT_T0_.exit: ; preds = %for.body.i, %entry
  %count.0.lcssa.i = phi i32 [ 0, %entry ], [ %spec.select.i, %for.body.i ]
  ret i32 %count.0.lcssa.i
}